target datalayout = "e-m:e-p270:32:32-p271:32:32-p272:64:64-i64:64-i128:128-f80:128-n8:16:32:64-S128"
target triple = "x86_64-unknown-linux-gnu"

%"struct.std::_Rb_tree_key_compare" = type { %"struct.std::less" }
%"struct.std::less" = type { i8 }
%"struct.std::_Rb_tree_header" = type { %"struct.std::_Rb_tree_node_base", i64 }
%"struct.std::_Rb_tree_node_base" = type { i32, ptr, ptr, ptr }
%"class.std::__cxx11::basic_string" = type { %"struct.std::__cxx11::basic_string<char>::_Alloc_hider", i64, %union.anon }
%"struct.std::__cxx11::basic_string<char>::_Alloc_hider" = type { ptr }
%union.anon = type { i64, [8 x i8] }
%"class.__gnu_cxx::__normal_iterator" = type { ptr }
%"class.std::__cxx11::match_results" = type { %"class.std::vector", %"class.__gnu_cxx::__normal_iterator" }
%"class.std::vector" = type { %"struct.std::_Vector_base" }
%"struct.std::_Vector_base" = type { %"struct.std::_Vector_base<std::__cxx11::sub_match<__gnu_cxx::__normal_iterator<const char *, std::__cxx11::basic_string<char>>>, std::allocator<std::__cxx11::sub_match<__gnu_cxx::__normal_iterator<const char *, std::__cxx11::basic_string<char>>>>>::_Vector_impl" }
%"struct.std::_Vector_base<std::__cxx11::sub_match<__gnu_cxx::__normal_iterator<const char *, std::__cxx11::basic_string<char>>>, std::allocator<std::__cxx11::sub_match<__gnu_cxx::__normal_iterator<const char *, std::__cxx11::basic_string<char>>>>>::_Vector_impl" = type { %"struct.std::_Vector_base<std::__cxx11::sub_match<__gnu_cxx::__normal_iterator<const char *, std::__cxx11::basic_string<char>>>, std::allocator<std::__cxx11::sub_match<__gnu_cxx::__normal_iterator<const char *, std::__cxx11::basic_string<char>>>>>::_Vector_impl_data" }
%"struct.std::_Vector_base<std::__cxx11::sub_match<__gnu_cxx::__normal_iterator<const char *, std::__cxx11::basic_string<char>>>, std::allocator<std::__cxx11::sub_match<__gnu_cxx::__normal_iterator<const char *, std::__cxx11::basic_string<char>>>>>::_Vector_impl_data" = type { ptr, ptr, ptr }
%"struct.std::pair.4" = type { i64, i64 }
%"class.std::_Function_base" = type { %"union.std::_Any_data", ptr }
%"union.std::_Any_data" = type { %"union.std::_Nocopy_types" }
%"union.std::_Nocopy_types" = type { { i64, i64 } }
%"class.std::_Rb_tree" = type { %"struct.std::_Rb_tree<std::__cxx11::basic_string<char>, std::pair<const std::__cxx11::basic_string<char>, std::__cxx11::basic_string<char>>, std::_Select1st<std::pair<const std::__cxx11::basic_string<char>, std::__cxx11::basic_string<char>>>, std::less<std::__cxx11::basic_string<char>>>::_Rb_tree_impl" }
%"struct.std::_Rb_tree<std::__cxx11::basic_string<char>, std::pair<const std::__cxx11::basic_string<char>, std::__cxx11::basic_string<char>>, std::_Select1st<std::pair<const std::__cxx11::basic_string<char>, std::__cxx11::basic_string<char>>>, std::less<std::__cxx11::basic_string<char>>>::_Rb_tree_impl" = type { %"struct.std::_Rb_tree_key_compare", %"struct.std::_Rb_tree_header" }
%"struct.httplib::Response" = type <{ %"class.std::__cxx11::basic_string", i32, [4 x i8], %"class.std::__cxx11::basic_string", %"class.std::multimap", %"class.std::__cxx11::basic_string", %"class.std::__cxx11::basic_string", i64, %"class.std::function.29", %"class.std::function.31", i8, i8, [6 x i8] }>
%"class.std::multimap" = type { %"class.std::_Rb_tree.27" }
%"class.std::_Rb_tree.27" = type { %"struct.std::_Rb_tree<std::__cxx11::basic_string<char>, std::pair<const std::__cxx11::basic_string<char>, std::__cxx11::basic_string<char>>, std::_Select1st<std::pair<const std::__cxx11::basic_string<char>, std::__cxx11::basic_string<char>>>, httplib::detail::ci>::_Rb_tree_impl" }
%"struct.std::_Rb_tree<std::__cxx11::basic_string<char>, std::pair<const std::__cxx11::basic_string<char>, std::__cxx11::basic_string<char>>, std::_Select1st<std::pair<const std::__cxx11::basic_string<char>, std::__cxx11::basic_string<char>>>, httplib::detail::ci>::_Rb_tree_impl" = type { %"struct.std::_Rb_tree_key_compare.28", %"struct.std::_Rb_tree_header" }
%"struct.std::_Rb_tree_key_compare.28" = type { %"struct.httplib::detail::ci" }
%"struct.httplib::detail::ci" = type { i8 }
%"class.std::function.29" = type { %"class.std::_Function_base", ptr }
%"class.std::function.31" = type { %"class.std::_Function_base", ptr }
%"struct.httplib::Request" = type { %"class.std::__cxx11::basic_string", %"class.std::__cxx11::basic_string", %"class.std::multimap", %"class.std::__cxx11::basic_string", %"class.std::__cxx11::basic_string", i32, %"class.std::__cxx11::basic_string", i32, %"class.std::__cxx11::basic_string", %"class.std::__cxx11::basic_string", %"class.std::multimap.34", %"class.std::multimap.35", %"class.std::vector.40", %"class.std::__cxx11::match_results", %"class.std::unordered_map", %"class.std::function.50", %"class.std::function.53", %"class.std::function.55", ptr, i64, i64, %"class.std::function.29", i8, i64 }
%"class.std::multimap.34" = type { %"class.std::_Rb_tree" }
%"class.std::multimap.35" = type { %"class.std::_Rb_tree.36" }
%"class.std::_Rb_tree.36" = type { %"struct.std::_Rb_tree<std::__cxx11::basic_string<char>, std::pair<const std::__cxx11::basic_string<char>, httplib::MultipartFormData>, std::_Select1st<std::pair<const std::__cxx11::basic_string<char>, httplib::MultipartFormData>>, std::less<std::__cxx11::basic_string<char>>>::_Rb_tree_impl" }
%"struct.std::_Rb_tree<std::__cxx11::basic_string<char>, std::pair<const std::__cxx11::basic_string<char>, httplib::MultipartFormData>, std::_Select1st<std::pair<const std::__cxx11::basic_string<char>, httplib::MultipartFormData>>, std::less<std::__cxx11::basic_string<char>>>::_Rb_tree_impl" = type { %"struct.std::_Rb_tree_key_compare", %"struct.std::_Rb_tree_header" }
%"class.std::vector.40" = type { %"struct.std::_Vector_base.41" }
%"struct.std::_Vector_base.41" = type { %"struct.std::_Vector_base<std::pair<long, long>, std::allocator<std::pair<long, long>>>::_Vector_impl" }
%"struct.std::_Vector_base<std::pair<long, long>, std::allocator<std::pair<long, long>>>::_Vector_impl" = type { %"struct.std::_Vector_base<std::pair<long, long>, std::allocator<std::pair<long, long>>>::_Vector_impl_data" }
%"struct.std::_Vector_base<std::pair<long, long>, std::allocator<std::pair<long, long>>>::_Vector_impl_data" = type { ptr, ptr, ptr }
%"class.std::unordered_map" = type { %"class.std::_Hashtable" }
%"class.std::_Hashtable" = type { ptr, i64, %"struct.std::__detail::_Hash_node_base", i64, %"struct.std::__detail::_Prime_rehash_policy", ptr }
%"struct.std::__detail::_Hash_node_base" = type { ptr }
%"struct.std::__detail::_Prime_rehash_policy" = type { float, i64 }
%"class.std::function.50" = type { %"class.std::_Function_base", ptr }
%"class.std::function.53" = type { %"class.std::_Function_base", ptr }
%"class.std::function.55" = type { %"class.std::_Function_base", ptr }
%"struct.std::pair.85" = type { i64, i64 }

; Function Attrs: mustprogress nounwind uwtable
define linkonce_odr void @_ZNSt4pairIllEC2IRllTnNSt9enable_ifIXaaclsr5_PCCPE22_MoveConstructiblePairIT_T0_EEclsr5_PCCPE30_ImplicitlyMoveConvertiblePairIS4_S5_EEEbE4typeELb1EEEOS4_OS5_(ptr noundef nonnull align 8 dereferenceable(16) %this, ptr noundef nonnull align 8 dereferenceable(8) %__x, ptr noundef nonnull align 8 dereferenceable(8) %__y) unnamed_addr #4 comdat align 2 {
entry:
  %this.addr = alloca ptr, align 8
  %__x.addr = alloca ptr, align 8
  %__y.addr = alloca ptr, align 8
  store ptr %this, ptr %this.addr, align 8
  store ptr %__x, ptr %__x.addr, align 8
  store ptr %__y, ptr %__y.addr, align 8
  %this1 = load ptr, ptr %this.addr, align 8
  %first = getelementptr inbounds %"struct.std::pair.85", ptr %this1, i32 0, i32 0
  %0 = load ptr, ptr %__x.addr, align 8
  %1 = load i64, ptr %0, align 8
  store i64 %1, ptr %first, align 8
  %second = getelementptr inbounds %"struct.std::pair.85", ptr %this1, i32 0, i32 1
  %2 = load ptr, ptr %__y.addr, align 8
  %3 = load i64, ptr %2, align 8
  store i64 %3, ptr %second, align 8
  ret void
}

; Function Attrs: mustprogress nounwind uwtable
define linkonce_odr void @_ZNSt4pairImmEC2IllTnNSt9enable_ifIXaaclsr6_PCCFPIT_T0_EE22_MoveConstructiblePairIS3_S4_EEclsr6_PCCFPIS3_S4_EE30_ImplicitlyMoveConvertiblePairIS3_S4_EEEbE4typeELb1EEEOS_IS3_S4_E(ptr noundef nonnull align 8 dereferenceable(16) %this, ptr noundef nonnull align 8 dereferenceable(16) %__p) unnamed_addr #4 comdat align 2 {
entry:
  %this.addr = alloca ptr, align 8
  %__p.addr = alloca ptr, align 8
  store ptr %this, ptr %this.addr, align 8
  store ptr %__p, ptr %__p.addr, align 8
  %this1 = load ptr, ptr %this.addr, align 8
  %first = getelementptr inbounds %"struct.std::pair.4", ptr %this1, i32 0, i32 0
  %0 = load ptr, ptr %__p.addr, align 8
  %first2 = getelementptr inbounds %"struct.std::pair.85", ptr %0, i32 0, i32 0
  %1 = load i64, ptr %first2, align 8
  store i64 %1, ptr %first, align 8
  %second = getelementptr inbounds %"struct.std::pair.4", ptr %this1, i32 0, i32 1
  %2 = load ptr, ptr %__p.addr, align 8
  %second3 = getelementptr inbounds %"struct.std::pair.85", ptr %2, i32 0, i32 1
  %3 = load i64, ptr %second3, align 8
  store i64 %3, ptr %second, align 8
  ret void
}

; Function Attrs: mustprogress uwtable
define linkonce_odr { i64, i64 } @_ZSt9make_pairIRllESt4pairINSt25__strip_reference_wrapperINSt5decayIT_E4typeEE6__typeENS2_INS3_IT0_E4typeEE6__typeEEOS4_OS9_(ptr noundef nonnull align 8 dereferenceable(8) %__x, ptr noundef nonnull align 8 dereferenceable(8) %__y) #6 comdat {
entry:
  %retval = alloca %"struct.std::pair.85", align 8
  %__x.addr = alloca ptr, align 8
  %__y.addr = alloca ptr, align 8
  store ptr %__x, ptr %__x.addr, align 8
  store ptr %__y, ptr %__y.addr, align 8
  %0 = load ptr, ptr %__x.addr, align 8
  %1 = load ptr, ptr %__y.addr, align 8
  call void @_ZNSt4pairIllEC2IRllTnNSt9enable_ifIXaaclsr5_PCCPE22_MoveConstructiblePairIT_T0_EEclsr5_PCCPE30_ImplicitlyMoveConvertiblePairIS4_S5_EEEbE4typeELb1EEEOS4_OS5_(ptr noundef nonnull align 8 dereferenceable(16) %retval, ptr noundef nonnull align 8 dereferenceable(8) %0, ptr noundef nonnull align 8 dereferenceable(8) %1)
  %2 = load { i64, i64 }, ptr %retval, align 8
  ret { i64, i64 } %2
}

; Function Attrs: mustprogress nounwind uwtable
define linkonce_odr noundef nonnull align 8 dereferenceable(16) ptr @_ZNKSt6vectorISt4pairIllESaIS1_EEixEm(ptr noundef nonnull align 8 dereferenceable(24) %this, i64 noundef %__n) #4 comdat align 2 {
entry:
  %this.addr = alloca ptr, align 8
  %__n.addr = alloca i64, align 8
  store ptr %this, ptr %this.addr, align 8
  store i64 %__n, ptr %__n.addr, align 8
  %this1 = load ptr, ptr %this.addr, align 8
  %_M_impl = getelementptr inbounds %"struct.std::_Vector_base.41", ptr %this1, i32 0, i32 0
  %_M_start = getelementptr inbounds %"struct.std::_Vector_base<std::pair<long, long>, std::allocator<std::pair<long, long>>>::_Vector_impl_data", ptr %_M_impl, i32 0, i32 0
  %0 = load ptr, ptr %_M_start, align 8
  %1 = load i64, ptr %__n.addr, align 8
  %add.ptr = getelementptr inbounds %"struct.std::pair.85", ptr %0, i64 %1
  ret ptr %add.ptr
}

; Function Attrs: mustprogress uwtable
define { i64, i64 } @_ZN7httplib6detail27get_range_offset_and_lengthERKNS_7RequestERKNS_8ResponseEm(ptr noundef nonnull align 8 dereferenceable(664) %req, ptr noundef nonnull align 8 dereferenceable(258) %res, i64 noundef %index) #6 {
entry:
  %retval = alloca %"struct.std::pair.4", align 8
  %req.addr = alloca ptr, align 8
  %res.addr = alloca ptr, align 8
  %index.addr = alloca i64, align 8
  %r = alloca %"struct.std::pair.85", align 8
  %ref.tmp = alloca %"struct.std::pair.85", align 8
  %ref.tmp2 = alloca i64, align 8
  store ptr %req, ptr %req.addr, align 8
  store ptr %res, ptr %res.addr, align 8
  store i64 %index, ptr %index.addr, align 8
  %0 = load ptr, ptr %req.addr, align 8
  %ranges = getelementptr inbounds %"struct.httplib::Request", ptr %0, i32 0, i32 12
  %1 = load i64, ptr %index.addr, align 8
  %call = call noundef nonnull align 8 dereferenceable(16) ptr @_ZNKSt6vectorISt4pairIllESaIS1_EEixEm(ptr noundef nonnull align 8 dereferenceable(24) %ranges, i64 noundef %1) #3
  call void @llvm.memcpy.p0.p0.i64(ptr align 8 %r, ptr align 8 %call, i64 16, i1 false)
  %second = getelementptr inbounds %"struct.std::pair.85", ptr %r, i32 0, i32 1
  %2 = load i64, ptr %second, align 8
  %cmp = icmp eq i64 %2, -1
  br i1 %cmp, label %if.then, label %if.end

if.then:                                          ; preds = %entry
  %3 = load ptr, ptr %res.addr, align 8
  %content_length_ = getelementptr inbounds %"struct.httplib::Response", ptr %3, i32 0, i32 7
  %4 = load i64, ptr %content_length_, align 8
  %sub = sub nsw i64 %4, 1
  %second1 = getelementptr inbounds %"struct.std::pair.85", ptr %r, i32 0, i32 1
  store i64 %sub, ptr %second1, align 8
  br label %if.end

if.end:                                           ; preds = %if.then, %entry
  %first = getelementptr inbounds %"struct.std::pair.85", ptr %r, i32 0, i32 0
  %second3 = getelementptr inbounds %"struct.std::pair.85", ptr %r, i32 0, i32 1
  %5 = load i64, ptr %second3, align 8
  %first4 = getelementptr inbounds %"struct.std::pair.85", ptr %r, i32 0, i32 0
  %6 = load i64, ptr %first4, align 8
  %sub5 = sub nsw i64 %5, %6
  %add = add nsw i64 %sub5, 1
  store i64 %add, ptr %ref.tmp2, align 8
  %call6 = call { i64, i64 } @_ZSt9make_pairIRllESt4pairINSt25__strip_reference_wrapperINSt5decayIT_E4typeEE6__typeENS2_INS3_IT0_E4typeEE6__typeEEOS4_OS9_(ptr noundef nonnull align 8 dereferenceable(8) %first, ptr noundef nonnull align 8 dereferenceable(8) %ref.tmp2)
  %7 = getelementptr inbounds { i64, i64 }, ptr %ref.tmp, i32 0, i32 0
  %8 = extractvalue { i64, i64 } %call6, 0
  store i64 %8, ptr %7, align 8
  %9 = getelementptr inbounds { i64, i64 }, ptr %ref.tmp, i32 0, i32 1
  %10 = extractvalue { i64, i64 } %call6, 1
  store i64 %10, ptr %9, align 8
  call void @_ZNSt4pairImmEC2IllTnNSt9enable_ifIXaaclsr6_PCCFPIT_T0_EE22_MoveConstructiblePairIS3_S4_EEclsr6_PCCFPIS3_S4_EE30_ImplicitlyMoveConvertiblePairIS3_S4_EEEbE4typeELb1EEEOS_IS3_S4_E(ptr noundef nonnull align 8 dereferenceable(16) %retval, ptr noundef nonnull align 8 dereferenceable(16) %ref.tmp)
  %11 = load { i64, i64 }, ptr %retval, align 8
  ret { i64, i64 } %11
}