; Function Attrs: mustprogress nofree norecurse nosync nounwind willreturn memory(read, inaccessiblemem: none) uwtable
define { i64, i64 } @_ZN7httplib6detail27get_range_offset_and_lengthERKNS_7RequestERKNS_8ResponseEm(ptr nocapture noundef nonnull readonly align 8 dereferenceable(664) %req, ptr nocapture noundef nonnull readonly align 8 dereferenceable(258) %res, i64 noundef %index) local_unnamed_addr #9 {
entry:
  %ranges = getelementptr inbounds i8, ptr %req, i64 384
  %0 = load ptr, ptr %ranges, align 8
  %add.ptr.i = getelementptr inbounds %"struct.std::pair.85", ptr %0, i64 %index
  %r.sroa.0.0.copyload = load i64, ptr %add.ptr.i, align 8
  %r.sroa.3.0.add.ptr.i.sroa_idx = getelementptr inbounds i8, ptr %add.ptr.i, i64 8
  %r.sroa.3.0.copyload = load i64, ptr %r.sroa.3.0.add.ptr.i.sroa_idx, align 8
  %cmp = icmp eq i64 %r.sroa.3.0.copyload, -1
  %content_length_ = getelementptr inbounds i8, ptr %res, i64 184
  %1 = load i64, ptr %content_length_, align 8
  %sub = add nsw i64 %1, -1
  %r.sroa.3.0 = select i1 %cmp, i64 %sub, i64 %r.sroa.3.0.copyload
  %reass.sub = sub i64 %r.sroa.3.0, %r.sroa.0.0.copyload
  %add = add i64 %reass.sub, 1
  %.fca.0.insert.i = insertvalue { i64, i64 } poison, i64 %r.sroa.0.0.copyload, 0
  %.fca.1.insert.i = insertvalue { i64, i64 } %.fca.0.insert.i, i64 %add, 1
  ret { i64, i64 } %.fca.1.insert.i
}